target datalayout = "e-m:e-p270:32:32-p271:32:32-p272:64:64-i64:64-i128:128-f80:128-n8:16:32:64-S128"
target triple = "x86_64-pc-linux-gnu"

%struct.cache_bin_info_s = type { i16 }
%struct.nstime_t = type { i64 }
%struct.tcache_slow_s = type { %struct.anon, %struct.cache_bin_array_descriptor_s, ptr, i32, %struct.nstime_t, i32, i32, i32, [36 x %struct.cache_bin_fill_ctl_s], [36 x i8], [36 x i8], ptr, ptr }
%struct.anon = type { ptr, ptr }
%struct.cache_bin_array_descriptor_s = type { %struct.anon.0, ptr }
%struct.anon.0 = type { ptr, ptr }
%struct.cache_bin_fill_ctl_s = type { i8, i8 }
%struct.tcache_s = type { ptr, [73 x %struct.cache_bin_s] }
%struct.cache_bin_s = type { ptr, %struct.cache_bin_stats_s, i16, i16, i16, %struct.cache_bin_info_s }
%struct.cache_bin_stats_s = type { i64 }

@je_opt_tcache_gc_delay_bytes = hidden global i64 0, align 8
@je_sz_index2size_tab = external global [232 x i64], align 16
@nstime_zero = internal constant %struct.nstime_t zeroinitializer, align 8

; Function Attrs: alwaysinline nounwind uwtable
define internal i64 @sz_index2size_lookup_impl(i32 noundef %0) #1 {
  %2 = alloca i32, align 4
  store i32 %0, ptr %2, align 4, !tbaa !34
  %3 = load i32, ptr %2, align 4, !tbaa !34
  %4 = zext i32 %3 to i64
  %5 = getelementptr inbounds nuw [232 x i64], ptr @je_sz_index2size_tab, i64 0, i64 %4
  %6 = load i64, ptr %5, align 8, !tbaa !16
  ret i64 %6
}

; Function Attrs: alwaysinline nounwind uwtable
define internal i64 @sz_index2size_lookup(i32 noundef %0) #1 {
  %2 = alloca i32, align 4
  %3 = alloca i64, align 8
  store i32 %0, ptr %2, align 4, !tbaa !34
  call void @llvm.lifetime.start.p0(i64 8, ptr %3) #13
  %4 = load i32, ptr %2, align 4, !tbaa !34
  %5 = call i64 @sz_index2size_lookup_impl(i32 noundef %4)
  store i64 %5, ptr %3, align 8, !tbaa !16
  br label %6

6:                                                ; preds = %1
  br label %7

7:                                                ; preds = %6
  br label %8

8:                                                ; preds = %7
  %9 = load i64, ptr %3, align 8, !tbaa !16
  call void @llvm.lifetime.end.p0(i64 8, ptr %3) #13
  ret i64 %9
}

; Function Attrs: alwaysinline nounwind uwtable
define internal i64 @sz_index2size(i32 noundef %0) #1 {
  %2 = alloca i32, align 4
  store i32 %0, ptr %2, align 4, !tbaa !34
  br label %3

3:                                                ; preds = %1
  br label %4

4:                                                ; preds = %3
  %5 = load i32, ptr %2, align 4, !tbaa !34
  %6 = call i64 @sz_index2size_lookup(i32 noundef %5)
  ret i64 %6
}

; Function Attrs: nounwind uwtable
define internal zeroext i8 @tcache_gc_item_delay_compute(i32 noundef %0) #0 {
  %2 = alloca i32, align 4
  %3 = alloca i64, align 8
  %4 = alloca i64, align 8
  %5 = alloca i64, align 8
  store i32 %0, ptr %2, align 4, !tbaa !34
  br label %6

6:                                                ; preds = %1
  br label %7

7:                                                ; preds = %6
  call void @llvm.lifetime.start.p0(i64 8, ptr %3) #13
  %8 = load i32, ptr %2, align 4, !tbaa !34
  %9 = call i64 @sz_index2size(i32 noundef %8)
  store i64 %9, ptr %3, align 8, !tbaa !16
  call void @llvm.lifetime.start.p0(i64 8, ptr %4) #13
  %10 = load i64, ptr @je_opt_tcache_gc_delay_bytes, align 8, !tbaa !16
  %11 = load i64, ptr %3, align 8, !tbaa !16
  %12 = udiv i64 %10, %11
  store i64 %12, ptr %4, align 8, !tbaa !16
  call void @llvm.lifetime.start.p0(i64 8, ptr %5) #13
  store i64 256, ptr %5, align 8, !tbaa !16
  %13 = load i64, ptr %4, align 8, !tbaa !16
  %14 = load i64, ptr %5, align 8, !tbaa !16
  %15 = icmp uge i64 %13, %14
  br i1 %15, label %16, label %19

16:                                               ; preds = %7
  %17 = load i64, ptr %5, align 8, !tbaa !16
  %18 = sub i64 %17, 1
  store i64 %18, ptr %4, align 8, !tbaa !16
  br label %19

19:                                               ; preds = %16, %7
  %20 = load i64, ptr %4, align 8, !tbaa !16
  %21 = trunc i64 %20 to i8
  call void @llvm.lifetime.end.p0(i64 8, ptr %5) #13
  call void @llvm.lifetime.end.p0(i64 8, ptr %4) #13
  call void @llvm.lifetime.end.p0(i64 8, ptr %3) #13
  ret i8 %21
}

; Function Attrs: inlinehint nounwind uwtable
define internal void @tcache_bin_fill_ctl_init(ptr noundef %0, i32 noundef %1) #3 {
  %3 = alloca ptr, align 8
  %4 = alloca i32, align 4
  %5 = alloca ptr, align 8
  store ptr %0, ptr %3, align 8, !tbaa !20
  store i32 %1, ptr %4, align 4, !tbaa !34
  br label %6

6:                                                ; preds = %2
  br label %7

7:                                                ; preds = %6
  call void @llvm.lifetime.start.p0(i64 8, ptr %5) #13
  %8 = load ptr, ptr %3, align 8, !tbaa !20
  %9 = getelementptr inbounds nuw %struct.tcache_slow_s, ptr %8, i32 0, i32 8
  %10 = load i32, ptr %4, align 4, !tbaa !34
  %11 = zext i32 %10 to i64
  %12 = getelementptr inbounds nuw [36 x %struct.cache_bin_fill_ctl_s], ptr %9, i64 0, i64 %11
  store ptr %12, ptr %5, align 8, !tbaa !48
  %13 = load ptr, ptr %5, align 8, !tbaa !48
  %14 = getelementptr inbounds nuw %struct.cache_bin_fill_ctl_s, ptr %13, i32 0, i32 0
  store i8 1, ptr %14, align 1, !tbaa !50
  %15 = load ptr, ptr %5, align 8, !tbaa !48
  %16 = getelementptr inbounds nuw %struct.cache_bin_fill_ctl_s, ptr %15, i32 0, i32 1
  store i8 0, ptr %16, align 1, !tbaa !52
  call void @llvm.lifetime.end.p0(i64 8, ptr %5) #13
  ret void
}

; Function Attrs: inlinehint nounwind uwtable
define internal i32 @tcache_nbins_get(ptr noundef %0) #3 {
  %2 = alloca ptr, align 8
  %3 = alloca i32, align 4
  store ptr %0, ptr %2, align 8, !tbaa !20
  br label %4

4:                                                ; preds = %1
  br label %5

5:                                                ; preds = %4
  call void @llvm.lifetime.start.p0(i64 4, ptr %3) #13
  %6 = load ptr, ptr %2, align 8, !tbaa !20
  %7 = getelementptr inbounds nuw %struct.tcache_slow_s, ptr %6, i32 0, i32 3
  %8 = load i32, ptr %7, align 8, !tbaa !127
  store i32 %8, ptr %3, align 4, !tbaa !34
  br label %9

9:                                                ; preds = %5
  br label %10

10:                                               ; preds = %9
  br label %11

11:                                               ; preds = %10
  %12 = load i32, ptr %3, align 4, !tbaa !34
  call void @llvm.lifetime.end.p0(i64 4, ptr %3) #13
  ret i32 %12
}

; Function Attrs: alwaysinline nounwind uwtable
define internal void @nstime_init_zero(ptr noundef %0) #1 {
  %2 = alloca ptr, align 8
  store ptr %0, ptr %2, align 8, !tbaa !9
  %3 = load ptr, ptr %2, align 8, !tbaa !9
  call void @je_nstime_copy(ptr noundef %3, ptr noundef @nstime_zero)
  ret void
}

; Function Attrs: nounwind uwtable
define internal void @tcache_init(ptr noundef %0, ptr noundef %1, ptr noundef %2, ptr noundef %3, ptr noundef %4) #0 {
  %6 = alloca ptr, align 8
  %7 = alloca ptr, align 8
  %8 = alloca ptr, align 8
  %9 = alloca ptr, align 8
  %10 = alloca ptr, align 8
  %11 = alloca i32, align 4
  %12 = alloca i64, align 8
  %13 = alloca i32, align 4
  %14 = alloca ptr, align 8
  %15 = alloca i32, align 4
  %16 = alloca ptr, align 8
  store ptr %0, ptr %6, align 8, !tbaa !14
  store ptr %1, ptr %7, align 8, !tbaa !20
  store ptr %2, ptr %8, align 8, !tbaa !18
  store ptr %3, ptr %9, align 8, !tbaa !9
  store ptr %4, ptr %10, align 8, !tbaa !128
  %17 = load ptr, ptr %7, align 8, !tbaa !20
  %18 = load ptr, ptr %8, align 8, !tbaa !18
  %19 = getelementptr inbounds nuw %struct.tcache_s, ptr %18, i32 0, i32 0
  store ptr %17, ptr %19, align 8, !tbaa !44
  %20 = load ptr, ptr %8, align 8, !tbaa !18
  %21 = load ptr, ptr %7, align 8, !tbaa !20
  %22 = getelementptr inbounds nuw %struct.tcache_slow_s, ptr %21, i32 0, i32 12
  store ptr %20, ptr %22, align 8, !tbaa !126
  %23 = load ptr, ptr %7, align 8, !tbaa !20
  %24 = getelementptr inbounds nuw %struct.tcache_slow_s, ptr %23, i32 0, i32 0
  call void @llvm.memset.p0.i64(ptr align 8 %24, i8 0, i64 16, i1 false)
  %25 = load ptr, ptr %7, align 8, !tbaa !20
  %26 = getelementptr inbounds nuw %struct.tcache_slow_s, ptr %25, i32 0, i32 4
  call void @nstime_init_zero(ptr noundef %26)
  %27 = load ptr, ptr %7, align 8, !tbaa !20
  %28 = getelementptr inbounds nuw %struct.tcache_slow_s, ptr %27, i32 0, i32 5
  store i32 0, ptr %28, align 8, !tbaa !25
  %29 = load ptr, ptr %7, align 8, !tbaa !20
  %30 = getelementptr inbounds nuw %struct.tcache_slow_s, ptr %29, i32 0, i32 6
  store i32 0, ptr %30, align 4, !tbaa !35
  %31 = load ptr, ptr %7, align 8, !tbaa !20
  %32 = getelementptr inbounds nuw %struct.tcache_slow_s, ptr %31, i32 0, i32 7
  store i32 36, ptr %32, align 8, !tbaa !36
  %33 = load ptr, ptr %7, align 8, !tbaa !20
  %34 = getelementptr inbounds nuw %struct.tcache_slow_s, ptr %33, i32 0, i32 2
  store ptr null, ptr %34, align 8, !tbaa !67
  %35 = load ptr, ptr %9, align 8, !tbaa !9
  %36 = load ptr, ptr %7, align 8, !tbaa !20
  %37 = getelementptr inbounds nuw %struct.tcache_slow_s, ptr %36, i32 0, i32 11
  store ptr %35, ptr %37, align 8, !tbaa !130
  call void @llvm.lifetime.start.p0(i64 4, ptr %11) #13
  %38 = load ptr, ptr %7, align 8, !tbaa !20
  %39 = call i32 @tcache_nbins_get(ptr noundef %38)
  store i32 %39, ptr %11, align 4, !tbaa !34
  call void @llvm.lifetime.start.p0(i64 8, ptr %12) #13
  store i64 0, ptr %12, align 8, !tbaa !16
  %40 = load ptr, ptr %10, align 8, !tbaa !128
  %41 = load i32, ptr %11, align 4, !tbaa !34
  %42 = load ptr, ptr %9, align 8, !tbaa !9
  call void @je_cache_bin_preincrement(ptr noundef %40, i32 noundef %41, ptr noundef %42, ptr noundef %12)
  call void @llvm.lifetime.start.p0(i64 4, ptr %13) #13
  store i32 0, ptr %13, align 4, !tbaa !34
  br label %43

43:                                               ; preds = %97, %5
  %44 = load i32, ptr %13, align 4, !tbaa !34
  %45 = load i32, ptr %11, align 4, !tbaa !34
  %46 = icmp ult i32 %44, %45
  br i1 %46, label %48, label %47

47:                                               ; preds = %43
  call void @llvm.lifetime.end.p0(i64 4, ptr %13) #13
  br label %100

48:                                               ; preds = %43
  %49 = load i32, ptr %13, align 4, !tbaa !34
  %50 = zext i32 %49 to i64
  %51 = icmp ult i64 %50, 36
  br i1 %51, label %52, label %67

52:                                               ; preds = %48
  %53 = load ptr, ptr %7, align 8, !tbaa !20
  %54 = load i32, ptr %13, align 4, !tbaa !34
  call void @tcache_bin_fill_ctl_init(ptr noundef %53, i32 noundef %54)
  %55 = load ptr, ptr %7, align 8, !tbaa !20
  %56 = getelementptr inbounds nuw %struct.tcache_slow_s, ptr %55, i32 0, i32 9
  %57 = load i32, ptr %13, align 4, !tbaa !34
  %58 = zext i32 %57 to i64
  %59 = getelementptr inbounds nuw [36 x i8], ptr %56, i64 0, i64 %58
  store i8 0, ptr %59, align 1, !tbaa !22
  %60 = load i32, ptr %13, align 4, !tbaa !34
  %61 = call zeroext i8 @tcache_gc_item_delay_compute(i32 noundef %60)
  %62 = load ptr, ptr %7, align 8, !tbaa !20
  %63 = getelementptr inbounds nuw %struct.tcache_slow_s, ptr %62, i32 0, i32 10
  %64 = load i32, ptr %13, align 4, !tbaa !34
  %65 = zext i32 %64 to i64
  %66 = getelementptr inbounds nuw [36 x i8], ptr %63, i64 0, i64 %65
  store i8 %61, ptr %66, align 1, !tbaa !66
  br label %67

67:                                               ; preds = %52, %48
  call void @llvm.lifetime.start.p0(i64 8, ptr %14) #13
  %68 = load ptr, ptr %8, align 8, !tbaa !18
  %69 = getelementptr inbounds nuw %struct.tcache_s, ptr %68, i32 0, i32 1
  %70 = load i32, ptr %13, align 4, !tbaa !34
  %71 = zext i32 %70 to i64
  %72 = getelementptr inbounds nuw [73 x %struct.cache_bin_s], ptr %69, i64 0, i64 %71
  store ptr %72, ptr %14, align 8, !tbaa !41
  %73 = load ptr, ptr %10, align 8, !tbaa !128
  %74 = load i32, ptr %13, align 4, !tbaa !34
  %75 = zext i32 %74 to i64
  %76 = getelementptr inbounds nuw %struct.cache_bin_info_s, ptr %73, i64 %75
  %77 = getelementptr inbounds nuw %struct.cache_bin_info_s, ptr %76, i32 0, i32 0
  %78 = load i16, ptr %77, align 2, !tbaa !131
  %79 = zext i16 %78 to i32
  %80 = icmp sgt i32 %79, 0
  br i1 %80, label %81, label %88

81:                                               ; preds = %67
  %82 = load ptr, ptr %14, align 8, !tbaa !41
  %83 = load ptr, ptr %10, align 8, !tbaa !128
  %84 = load i32, ptr %13, align 4, !tbaa !34
  %85 = zext i32 %84 to i64
  %86 = getelementptr inbounds nuw %struct.cache_bin_info_s, ptr %83, i64 %85
  %87 = load ptr, ptr %9, align 8, !tbaa !9
  call void @je_cache_bin_init(ptr noundef %82, ptr noundef %86, ptr noundef %87, ptr noundef %12)
  br label %96

88:                                               ; preds = %67
  %89 = load ptr, ptr %14, align 8, !tbaa !41
  %90 = load ptr, ptr %10, align 8, !tbaa !128
  %91 = load i32, ptr %13, align 4, !tbaa !34
  %92 = zext i32 %91 to i64
  %93 = getelementptr inbounds nuw %struct.cache_bin_info_s, ptr %90, i64 %92
  %94 = getelementptr inbounds nuw %struct.cache_bin_info_s, ptr %93, i32 0, i32 0
  %95 = load i16, ptr %94, align 2, !tbaa !131
  call void @je_cache_bin_init_disabled(ptr noundef %89, i16 noundef zeroext %95)
  br label %96

96:                                               ; preds = %88, %81
  call void @llvm.lifetime.end.p0(i64 8, ptr %14) #13
  br label %97

97:                                               ; preds = %96
  %98 = load i32, ptr %13, align 4, !tbaa !34
  %99 = add i32 %98, 1
  store i32 %99, ptr %13, align 4, !tbaa !34
  br label %43, !llvm.loop !132

100:                                              ; preds = %47
  call void @llvm.lifetime.start.p0(i64 4, ptr %15) #13
  %101 = load i32, ptr %11, align 4, !tbaa !34
  store i32 %101, ptr %15, align 4, !tbaa !34
  br label %102

102:                                              ; preds = %123, %100
  %103 = load i32, ptr %15, align 4, !tbaa !34
  %104 = zext i32 %103 to i64
  %105 = icmp ult i64 %104, 73
  br i1 %105, label %107, label %106

106:                                              ; preds = %102
  call void @llvm.lifetime.end.p0(i64 4, ptr %15) #13
  br label %126

107:                                              ; preds = %102
  call void @llvm.lifetime.start.p0(i64 8, ptr %16) #13
  %108 = load ptr, ptr %8, align 8, !tbaa !18
  %109 = getelementptr inbounds nuw %struct.tcache_s, ptr %108, i32 0, i32 1
  %110 = load i32, ptr %15, align 4, !tbaa !34
  %111 = zext i32 %110 to i64
  %112 = getelementptr inbounds nuw [73 x %struct.cache_bin_s], ptr %109, i64 0, i64 %111
  store ptr %112, ptr %16, align 8, !tbaa !41
  %113 = load ptr, ptr %16, align 8, !tbaa !41
  %114 = load ptr, ptr %10, align 8, !tbaa !128
  %115 = load i32, ptr %15, align 4, !tbaa !34
  %116 = zext i32 %115 to i64
  %117 = getelementptr inbounds nuw %struct.cache_bin_info_s, ptr %114, i64 %116
  %118 = getelementptr inbounds nuw %struct.cache_bin_info_s, ptr %117, i32 0, i32 0
  %119 = load i16, ptr %118, align 2, !tbaa !131
  call void @je_cache_bin_init_disabled(ptr noundef %113, i16 noundef zeroext %119)
  br label %120

120:                                              ; preds = %107
  br label %121

121:                                              ; preds = %120
  br label %122

122:                                              ; preds = %121
  call void @llvm.lifetime.end.p0(i64 8, ptr %16) #13
  br label %123

123:                                              ; preds = %122
  %124 = load i32, ptr %15, align 4, !tbaa !34
  %125 = add i32 %124, 1
  store i32 %125, ptr %15, align 4, !tbaa !34
  br label %102, !llvm.loop !133

126:                                              ; preds = %106
  %127 = load ptr, ptr %9, align 8, !tbaa !9
  call void @je_cache_bin_postincrement(ptr noundef %127, ptr noundef %12)
  call void @llvm.lifetime.end.p0(i64 8, ptr %12) #13
  call void @llvm.lifetime.end.p0(i64 4, ptr %11) #13
  ret void
}