; Function Attrs: nounwind uwtable
define internal fastcc void @tcache_init(ptr noundef %0, ptr noundef initializes((0, 8)) %1, ptr noundef nonnull %2, ptr noundef %3) unnamed_addr #0 {
  %5 = alloca i64, align 8
  store ptr %0, ptr %1, align 8, !tbaa !42
  %6 = getelementptr inbounds nuw i8, ptr %0, i64 232
  store ptr %1, ptr %6, align 8, !tbaa !159
  tail call void @llvm.memset.p0.i64(ptr noundef nonnull align 8 dereferenceable(16) %0, i8 0, i64 16, i1 false)
  %7 = getelementptr inbounds nuw i8, ptr %0, i64 56
  tail call void @je_nstime_copy(ptr noundef nonnull %7, ptr noundef nonnull @nstime_zero) #16
  %8 = getelementptr inbounds nuw i8, ptr %0, i64 64
  store i32 0, ptr %8, align 8, !tbaa !24
  %9 = getelementptr inbounds nuw i8, ptr %0, i64 68
  store i32 0, ptr %9, align 4, !tbaa !39
  %10 = getelementptr inbounds nuw i8, ptr %0, i64 72
  store i32 36, ptr %10, align 8, !tbaa !38
  %11 = getelementptr inbounds nuw i8, ptr %0, i64 40
  store ptr null, ptr %11, align 8, !tbaa !55
  %12 = getelementptr inbounds nuw i8, ptr %0, i64 224
  store ptr %2, ptr %12, align 8, !tbaa !171
  %13 = getelementptr i8, ptr %0, i64 48
  %.val = load i32, ptr %13, align 8, !tbaa !36
  call void @llvm.lifetime.start.p0(i64 8, ptr nonnull %5) #16
  store i64 0, ptr %5, align 8, !tbaa !19
  call void @je_cache_bin_preincrement(ptr noundef %3, i32 noundef %.val, ptr noundef nonnull %2, ptr noundef nonnull %5) #16
  %.not4 = icmp eq i32 %.val, 0
  br i1 %.not4, label %.lr.ph3, label %.lr.ph

.lr.ph:                                           ; preds = %4
  %14 = getelementptr inbounds nuw i8, ptr %0, i64 76
  %15 = getelementptr inbounds nuw i8, ptr %0, i64 148
  %16 = getelementptr inbounds nuw i8, ptr %0, i64 184
  %17 = getelementptr inbounds nuw i8, ptr %1, i64 8
  %wide.trip.count = zext i32 %.val to i64
  br label %21

.preheader:                                       ; preds = %39
  %18 = icmp ult i32 %.val, 73
  br i1 %18, label %.lr.ph3, label %._crit_edge

.lr.ph3:                                          ; preds = %4, %.preheader
  %19 = getelementptr inbounds nuw i8, ptr %1, i64 8
  %20 = zext nneg i32 %.val to i64
  br label %40

21:                                               ; preds = %.lr.ph, %39
  %indvars.iv = phi i64 [ 0, %.lr.ph ], [ %indvars.iv.next, %39 ]
  %22 = icmp samesign ult i64 %indvars.iv, 36
  br i1 %22, label %23, label %33

23:                                               ; preds = %21
  %24 = getelementptr inbounds nuw [36 x %struct.cache_bin_fill_ctl_s], ptr %14, i64 0, i64 %indvars.iv
  store i8 1, ptr %24, align 1, !tbaa !49
  %25 = getelementptr inbounds nuw i8, ptr %24, i64 1
  store i8 0, ptr %25, align 1, !tbaa !51
  %26 = getelementptr inbounds nuw [36 x i8], ptr %15, i64 0, i64 %indvars.iv
  store i8 0, ptr %26, align 1, !tbaa !20
  %27 = getelementptr inbounds nuw [232 x i64], ptr @je_sz_index2size_tab, i64 0, i64 %indvars.iv
  %28 = load i64, ptr %27, align 8, !tbaa !19
  %29 = load i64, ptr @je_opt_tcache_gc_delay_bytes, align 8, !tbaa !19
  %30 = udiv i64 %29, %28
  %spec.select.i = call i64 @llvm.umin.i64(i64 %30, i64 255)
  %31 = trunc nuw i64 %spec.select.i to i8
  %32 = getelementptr inbounds nuw [36 x i8], ptr %16, i64 0, i64 %indvars.iv
  store i8 %31, ptr %32, align 1, !tbaa !56
  br label %33

33:                                               ; preds = %23, %21
  %34 = getelementptr inbounds nuw [73 x %struct.cache_bin_s], ptr %17, i64 0, i64 %indvars.iv
  %35 = getelementptr inbounds nuw %struct.cache_bin_info_s, ptr %3, i64 %indvars.iv
  %36 = load i16, ptr %35, align 2, !tbaa !172
  %.not = icmp eq i16 %36, 0
  br i1 %.not, label %38, label %37

37:                                               ; preds = %33
  call void @je_cache_bin_init(ptr noundef nonnull %34, ptr noundef nonnull %35, ptr noundef nonnull %2, ptr noundef nonnull %5) #16
  br label %39

38:                                               ; preds = %33
  call void @je_cache_bin_init_disabled(ptr noundef nonnull %34, i16 noundef zeroext 0) #16
  br label %39

39:                                               ; preds = %38, %37
  %indvars.iv.next = add nuw nsw i64 %indvars.iv, 1
  %exitcond.not = icmp eq i64 %indvars.iv.next, %wide.trip.count
  br i1 %exitcond.not, label %.preheader, label %21, !llvm.loop !173

._crit_edge:                                      ; preds = %40, %.preheader
  call void @je_cache_bin_postincrement(ptr noundef nonnull %2, ptr noundef nonnull %5) #16
  call void @llvm.lifetime.end.p0(i64 8, ptr nonnull %5) #16
  ret void

40:                                               ; preds = %.lr.ph3, %40
  %indvars.iv6 = phi i64 [ %20, %.lr.ph3 ], [ %indvars.iv.next7, %40 ]
  %41 = getelementptr inbounds nuw [73 x %struct.cache_bin_s], ptr %19, i64 0, i64 %indvars.iv6
  %42 = getelementptr inbounds nuw %struct.cache_bin_info_s, ptr %3, i64 %indvars.iv6
  %43 = load i16, ptr %42, align 2, !tbaa !172
  call void @je_cache_bin_init_disabled(ptr noundef nonnull %41, i16 noundef zeroext %43) #16
  %indvars.iv.next7 = add nuw nsw i64 %indvars.iv6, 1
  %44 = and i64 %indvars.iv.next7, 4294967295
  %exitcond9.not = icmp eq i64 %44, 73
  br i1 %exitcond9.not, label %._crit_edge, label %40, !llvm.loop !174
}